; Function Attrs: mustprogress uwtable
define noundef i32 @_ZN3zmq13ws_listener_t17set_local_addressEPKc(ptr noundef nonnull align 8 dereferenceable(1632) %this, ptr noundef %addr_) local_unnamed_addr #0 align 2 personality ptr @__gxx_personality_v0 {
entry:
  %host_address = alloca %"class.std::__cxx11::basic_string", align 8
  %ref.tmp = alloca %"class.std::__cxx11::basic_string", align 8
  %ref.tmp10 = alloca %"class.std::allocator", align 1
  %ref.tmp24 = alloca %"class.std::__cxx11::basic_string", align 8
  %ref.tmp27 = alloca %"struct.zmq::endpoint_uri_pair_t", align 8
  %use_fd = getelementptr inbounds i8, ptr %this, i64 980
  %0 = load i32, ptr %use_fd, align 4
  %cmp.not = icmp eq i32 %0, -1
  br i1 %cmp.not, label %if.else, label %if.then

if.then:                                          ; preds = %entry
  %_s = getelementptr inbounds i8, ptr %this, i64 1464
  store i32 %0, ptr %_s, align 8
  br label %if.end23

if.else:                                          ; preds = %entry
  %_address = getelementptr inbounds i8, ptr %this, i64 1520
  %ipv6 = getelementptr inbounds i8, ptr %this, i64 384
  %1 = load i8, ptr %ipv6, align 8
  %2 = and i8 %1, 1
  %tobool = icmp ne i8 %2, 0
  %call = tail call noundef i32 @_ZN3zmq12ws_address_t7resolveEPKcbb(ptr noundef nonnull align 8 dereferenceable(96) %_address, ptr noundef %addr_, i1 noundef zeroext true, i1 noundef zeroext %tobool)
  %cmp5.not = icmp eq i32 %call, 0
  br i1 %cmp5.not, label %if.end, label %return

if.end:                                           ; preds = %if.else
  %call7 = tail call noundef ptr @strrchr(ptr noundef nonnull dereferenceable(1) %addr_, i32 noundef 47) #19
  call void @_ZNSt7__cxx1112basic_stringIcSt11char_traitsIcESaIcEEC1Ev(ptr noundef nonnull align 8 dereferenceable(32) %host_address) #14
  %tobool8.not = icmp eq ptr %call7, null
  br i1 %tobool8.not, label %if.else12, label %if.then9

if.then9:                                         ; preds = %if.end
  %sub.ptr.lhs.cast = ptrtoint ptr %call7 to i64
  %sub.ptr.rhs.cast = ptrtoint ptr %addr_ to i64
  %sub.ptr.sub = sub i64 %sub.ptr.lhs.cast, %sub.ptr.rhs.cast
  call void @_ZNSaIcEC1Ev(ptr noundef nonnull align 1 dereferenceable(1) %ref.tmp10) #14
  invoke void @_ZNSt7__cxx1112basic_stringIcSt11char_traitsIcESaIcEEC1EPKcmRKS3_(ptr noundef nonnull align 8 dereferenceable(32) %ref.tmp, ptr noundef %addr_, i64 noundef %sub.ptr.sub, ptr noundef nonnull align 1 dereferenceable(1) %ref.tmp10)
          to label %invoke.cont unwind label %lpad

invoke.cont:                                      ; preds = %if.then9
  %call11 = call noundef nonnull align 8 dereferenceable(32) ptr @_ZNSt7__cxx1112basic_stringIcSt11char_traitsIcESaIcEEaSEOS4_(ptr noundef nonnull align 8 dereferenceable(32) %host_address, ptr noundef nonnull align 8 dereferenceable(32) %ref.tmp) #14
  call void @_ZNSt7__cxx1112basic_stringIcSt11char_traitsIcESaIcEED1Ev(ptr noundef nonnull align 8 dereferenceable(32) %ref.tmp) #14
  call void @_ZNSaIcED1Ev(ptr noundef nonnull align 1 dereferenceable(1) %ref.tmp10) #14
  br label %if.end16

lpad:                                             ; preds = %if.then9
  %3 = landingpad { ptr, i32 }
          cleanup
  call void @_ZNSaIcED1Ev(ptr noundef nonnull align 1 dereferenceable(1) %ref.tmp10) #14
  br label %eh.resume

if.else12:                                        ; preds = %if.end
  %call15 = invoke noundef nonnull align 8 dereferenceable(32) ptr @_ZNSt7__cxx1112basic_stringIcSt11char_traitsIcESaIcEEaSEPKc(ptr noundef nonnull align 8 dereferenceable(32) %host_address, ptr noundef %addr_)
          to label %if.end16 unwind label %lpad13

lpad13:                                           ; preds = %if.end16, %if.else12
  %4 = landingpad { ptr, i32 }
          cleanup
  br label %eh.resume

if.end16:                                         ; preds = %if.else12, %invoke.cont
  %call17 = call noundef ptr @_ZNKSt7__cxx1112basic_stringIcSt11char_traitsIcESaIcEE5c_strEv(ptr noundef nonnull align 8 dereferenceable(32) %host_address) #14
  %call19 = invoke noundef i32 @_ZN3zmq13ws_listener_t13create_socketEPKc(ptr noundef nonnull align 8 dereferenceable(1632) %this, ptr noundef %call17)
          to label %invoke.cont18 unwind label %lpad13, !range !4

invoke.cont18:                                    ; preds = %if.end16
  %cmp20.not = icmp eq i32 %call19, -1
  call void @_ZNSt7__cxx1112basic_stringIcSt11char_traitsIcESaIcEED1Ev(ptr noundef nonnull align 8 dereferenceable(32) %host_address) #14
  br i1 %cmp20.not, label %return, label %invoke.cont18.if.end23_crit_edge

invoke.cont18.if.end23_crit_edge:                 ; preds = %invoke.cont18
  %_s25.phi.trans.insert = getelementptr inbounds i8, ptr %this, i64 1464
  %.pre = load i32, ptr %_s25.phi.trans.insert, align 8
  br label %if.end23

if.end23:                                         ; preds = %invoke.cont18.if.end23_crit_edge, %if.then
  %5 = phi i32 [ %.pre, %invoke.cont18.if.end23_crit_edge ], [ %0, %if.then ]
  %_s25 = getelementptr inbounds i8, ptr %this, i64 1464
  call void @_ZNK3zmq13ws_listener_t15get_socket_nameB5cxx11EiNS_12socket_end_tE(ptr nonnull sret(%"class.std::__cxx11::basic_string") align 8 %ref.tmp24, ptr noundef nonnull align 8 dereferenceable(1632) %this, i32 noundef %5, i32 noundef 0)
  %_endpoint = getelementptr inbounds i8, ptr %this, i64 1488
  %call26 = call noundef nonnull align 8 dereferenceable(32) ptr @_ZNSt7__cxx1112basic_stringIcSt11char_traitsIcESaIcEEaSEOS4_(ptr noundef nonnull align 8 dereferenceable(32) %_endpoint, ptr noundef nonnull align 8 dereferenceable(32) %ref.tmp24) #14
  call void @_ZNSt7__cxx1112basic_stringIcSt11char_traitsIcESaIcEED1Ev(ptr noundef nonnull align 8 dereferenceable(32) %ref.tmp24) #14
  %_socket = getelementptr inbounds i8, ptr %this, i64 1480
  %6 = load ptr, ptr %_socket, align 8
  call void @_ZN3zmq35make_unconnected_bind_endpoint_pairERKNSt7__cxx1112basic_stringIcSt11char_traitsIcESaIcEEE(ptr nonnull sret(%"struct.zmq::endpoint_uri_pair_t") align 8 %ref.tmp27, ptr noundef nonnull align 8 dereferenceable(32) %_endpoint)
  %7 = load i32, ptr %_s25, align 8
  invoke void @_ZN3zmq13socket_base_t15event_listeningERKNS_19endpoint_uri_pair_tEi(ptr noundef nonnull align 8 dereferenceable(1825) %6, ptr noundef nonnull align 8 dereferenceable(68) %ref.tmp27, i32 noundef %7)
          to label %invoke.cont31 unwind label %lpad30

invoke.cont31:                                    ; preds = %if.end23
  %remote.i = getelementptr inbounds i8, ptr %ref.tmp27, i64 32
  call void @_ZNSt7__cxx1112basic_stringIcSt11char_traitsIcESaIcEED1Ev(ptr noundef nonnull align 8 dereferenceable(32) %remote.i) #14
  call void @_ZNSt7__cxx1112basic_stringIcSt11char_traitsIcESaIcEED1Ev(ptr noundef nonnull align 8 dereferenceable(32) %ref.tmp27) #14
  br label %return

lpad30:                                           ; preds = %if.end23
  %8 = landingpad { ptr, i32 }
          cleanup
  %remote.i9 = getelementptr inbounds i8, ptr %ref.tmp27, i64 32
  call void @_ZNSt7__cxx1112basic_stringIcSt11char_traitsIcESaIcEED1Ev(ptr noundef nonnull align 8 dereferenceable(32) %remote.i9) #14
  br label %eh.resume

return:                                           ; preds = %invoke.cont18, %if.else, %invoke.cont31
  %retval.1 = phi i32 [ 0, %invoke.cont31 ], [ -1, %invoke.cont18 ], [ -1, %if.else ]
  ret i32 %retval.1

eh.resume:                                        ; preds = %lpad, %lpad13, %lpad30
  %ref.tmp27.sink = phi ptr [ %ref.tmp27, %lpad30 ], [ %host_address, %lpad13 ], [ %host_address, %lpad ]
  %.pn7 = phi { ptr, i32 } [ %8, %lpad30 ], [ %4, %lpad13 ], [ %3, %lpad ]
  call void @_ZNSt7__cxx1112basic_stringIcSt11char_traitsIcESaIcEED1Ev(ptr noundef nonnull align 8 dereferenceable(32) %ref.tmp27.sink) #14
  resume { ptr, i32 } %.pn7
}